target datalayout = "e-m:e-p270:32:32-p271:32:32-p272:64:64-i64:64-i128:128-f80:128-n8:16:32:64-S128"
target triple = "x86_64-pc-linux-gnu"

@methods_connectp = internal constant { i32, [4 x i8], ptr, ptr, ptr, ptr, ptr, ptr, ptr, ptr, ptr } { i32 1292, [4 x i8] zeroinitializer, ptr @.str, ptr @conn_write, ptr @conn_read, ptr @conn_puts, ptr null, ptr @conn_ctrl, ptr @conn_new, ptr @conn_free, ptr @conn_callback_ctrl }, align 8

; Function Attrs: nounwind uwtable
define hidden i32 @BIO_set_conn_hostname(ptr noundef %0, ptr noundef %1) #0 {
  %3 = alloca ptr, align 8
  %4 = alloca ptr, align 8
  store ptr %0, ptr %3, align 8, !tbaa !11
  store ptr %1, ptr %4, align 8, !tbaa !6
  %5 = load ptr, ptr %3, align 8, !tbaa !11
  %6 = load ptr, ptr %4, align 8, !tbaa !6
  %7 = call i64 @BIO_ctrl(ptr noundef %5, i32 noundef 100, i64 noundef 0, ptr noundef %6)
  %8 = trunc i64 %7 to i32
  ret i32 %8
}

; Function Attrs: nounwind uwtable
define hidden ptr @BIO_s_connect() #0 {
  ret ptr @methods_connectp
}

; Function Attrs: nounwind uwtable
define hidden ptr @BIO_new_connect(ptr noundef %0) #0 {
  %2 = alloca ptr, align 8
  %3 = alloca ptr, align 8
  %4 = alloca ptr, align 8
  %5 = alloca i32, align 4
  store ptr %0, ptr %3, align 8, !tbaa !6
  call void @llvm.lifetime.start.p0(i64 8, ptr %4) #7
  %6 = call ptr @BIO_s_connect()
  %7 = call ptr @BIO_new(ptr noundef %6)
  store ptr %7, ptr %4, align 8, !tbaa !11
  %8 = load ptr, ptr %4, align 8, !tbaa !11
  %9 = icmp eq ptr %8, null
  br i1 %9, label %10, label %11

10:                                               ; preds = %1
  store ptr null, ptr %2, align 8
  store i32 1, ptr %5, align 4
  br label %21

11:                                               ; preds = %1
  %12 = load ptr, ptr %4, align 8, !tbaa !11
  %13 = load ptr, ptr %3, align 8, !tbaa !6
  %14 = call i32 @BIO_set_conn_hostname(ptr noundef %12, ptr noundef %13)
  %15 = icmp ne i32 %14, 0
  br i1 %15, label %19, label %16

16:                                               ; preds = %11
  %17 = load ptr, ptr %4, align 8, !tbaa !11
  %18 = call i32 @BIO_free(ptr noundef %17)
  store ptr null, ptr %2, align 8
  store i32 1, ptr %5, align 4
  br label %21

19:                                               ; preds = %11
  %20 = load ptr, ptr %4, align 8, !tbaa !11
  store ptr %20, ptr %2, align 8
  store i32 1, ptr %5, align 4
  br label %21

21:                                               ; preds = %19, %16, %10
  call void @llvm.lifetime.end.p0(i64 8, ptr %4) #7
  %22 = load ptr, ptr %2, align 8
  ret ptr %22
}