; Function Attrs: nounwind uwtable
define hidden ptr @BIO_new_connect(ptr noundef %0) local_unnamed_addr #0 {
  %2 = tail call ptr @BIO_new(ptr noundef nonnull @methods_connectp) #10
  %3 = icmp eq ptr %2, null
  br i1 %3, label %9, label %4

4:                                                ; preds = %1
  %5 = tail call i64 @BIO_ctrl(ptr noundef nonnull %2, i32 noundef 100, i64 noundef 0, ptr noundef %0) #10
  %6 = and i64 %5, 4294967295
  %.not = icmp eq i64 %6, 0
  br i1 %.not, label %7, label %9

7:                                                ; preds = %4
  %8 = tail call i32 @BIO_free(ptr noundef nonnull %2) #10
  br label %9

9:                                                ; preds = %4, %1, %7
  %.0 = phi ptr [ null, %7 ], [ null, %1 ], [ %2, %4 ]
  ret ptr %.0
}